; ModuleID = '22/463.c'
source_filename = "22/463.c"
target datalayout = "e-m:e-p270:32:32-p271:32:32-p272:64:64-i64:64-f80:128-n8:16:32:64-S128"
target triple = "x86_64-pc-linux-gnu"

@a = common dso_local global [301 x i32] zeroinitializer, align 16
@b = common dso_local global [301 x i8] zeroinitializer, align 16
@.str = private unnamed_addr constant [3 x i8] c"%d\00", align 1
@.str.1 = private unnamed_addr constant [3 x i8] c"%c\00", align 1
@.str.2 = private unnamed_addr constant [4 x i8] c"%d\0A\00", align 1
@.str.3 = private unnamed_addr constant [4 x i8] c"No\0A\00", align 1

; Function Attrs: noinline nounwind uwtable
define dso_local i32 @main() #0 {
  %1 = alloca i32, align 4
  %2 = alloca i32, align 4
  %3 = alloca i32, align 4
  %4 = alloca i32, align 4
  %5 = alloca i32, align 4
  store i32 0, i32* %1, align 4
  store i32 0, i32* %2, align 4
  br label %6

6:                                                ; preds = %13, %0
  %7 = load i32, i32* %2, align 4
  %8 = icmp slt i32 %7, 300
  br i1 %8, label %9, label %16

9:                                                ; preds = %6
  %10 = load i32, i32* %2, align 4
  %11 = sext i32 %10 to i64
  %12 = getelementptr inbounds [301 x i32], [301 x i32]* @a, i64 0, i64 %11
  store i32 0, i32* %12, align 4
  br label %13

13:                                               ; preds = %9
  %14 = load i32, i32* %2, align 4
  %15 = add nsw i32 %14, 1
  store i32 %15, i32* %2, align 4
  br label %6

16:                                               ; preds = %6
  store i32 0, i32* %2, align 4
  br label %17

17:                                               ; preds = %24, %16
  %18 = load i32, i32* %2, align 4
  %19 = icmp slt i32 %18, 300
  br i1 %19, label %20, label %27

20:                                               ; preds = %17
  %21 = load i32, i32* %2, align 4
  %22 = sext i32 %21 to i64
  %23 = getelementptr inbounds [301 x i8], [301 x i8]* @b, i64 0, i64 %22
  store i8 0, i8* %23, align 1
  br label %24

24:                                               ; preds = %20
  %25 = load i32, i32* %2, align 4
  %26 = add nsw i32 %25, 1
  store i32 %26, i32* %2, align 4
  br label %17

27:                                               ; preds = %17
  %28 = call i32 (i8*, ...) @__isoc99_scanf(i8* getelementptr inbounds ([3 x i8], [3 x i8]* @.str, i64 0, i64 0), i32* getelementptr inbounds ([301 x i32], [301 x i32]* @a, i64 0, i64 0))
  store i32 0, i32* %2, align 4
  br label %29

29:                                               ; preds = %59, %27
  %30 = load i32, i32* %2, align 4
  %31 = icmp slt i32 %30, 300
  br i1 %31, label %32, label %62

32:                                               ; preds = %29
  %33 = load i32, i32* %2, align 4
  %34 = sext i32 %33 to i64
  %35 = getelementptr inbounds [301 x i8], [301 x i8]* @b, i64 0, i64 %34
  %36 = call i32 (i8*, ...) @__isoc99_scanf(i8* getelementptr inbounds ([3 x i8], [3 x i8]* @.str.1, i64 0, i64 0), i8* %35)
  %37 = load i32, i32* %2, align 4
  %38 = sext i32 %37 to i64
  %39 = getelementptr inbounds [301 x i8], [301 x i8]* @b, i64 0, i64 %38
  %40 = load i8, i8* %39, align 1
  %41 = sext i8 %40 to i32
  %42 = icmp ne i32 %41, 10
  br i1 %42, label %43, label %49

43:                                               ; preds = %32
  %44 = load i32, i32* %2, align 4
  %45 = add nsw i32 %44, 1
  %46 = sext i32 %45 to i64
  %47 = getelementptr inbounds [301 x i32], [301 x i32]* @a, i64 0, i64 %46
  %48 = call i32 (i8*, ...) @__isoc99_scanf(i8* getelementptr inbounds ([3 x i8], [3 x i8]* @.str, i64 0, i64 0), i32* %47)
  br label %58

49:                                               ; preds = %32
  %50 = load i32, i32* %2, align 4
  %51 = sext i32 %50 to i64
  %52 = getelementptr inbounds [301 x i8], [301 x i8]* @b, i64 0, i64 %51
  %53 = load i8, i8* %52, align 1
  %54 = sext i8 %53 to i32
  %55 = icmp eq i32 %54, 10
  br i1 %55, label %56, label %57

56:                                               ; preds = %49
  br label %62

57:                                               ; preds = %49
  br label %58

58:                                               ; preds = %57, %43
  br label %59

59:                                               ; preds = %58
  %60 = load i32, i32* %2, align 4
  %61 = add nsw i32 %60, 1
  store i32 %61, i32* %2, align 4
  br label %29

62:                                               ; preds = %56, %29
  %63 = call i64 @strlen(i8* getelementptr inbounds ([301 x i8], [301 x i8]* @b, i64 0, i64 0)) #3
  %64 = trunc i64 %63 to i32
  store i32 %64, i32* %3, align 4
  store i32 0, i32* %2, align 4
  br label %65

65:                                               ; preds = %95, %62
  %66 = load i32, i32* %2, align 4
  %67 = load i32, i32* %3, align 4
  %68 = icmp slt i32 %66, %67
  br i1 %68, label %69, label %98

69:                                               ; preds = %65
  %70 = load i32, i32* %2, align 4
  %71 = add nsw i32 %70, 1
  store i32 %71, i32* %4, align 4
  br label %72

72:                                               ; preds = %91, %69
  %73 = load i32, i32* %4, align 4
  %74 = load i32, i32* %3, align 4
  %75 = icmp slt i32 %73, %74
  br i1 %75, label %76, label %94

76:                                               ; preds = %72
  %77 = load i32, i32* %4, align 4
  %78 = sext i32 %77 to i64
  %79 = getelementptr inbounds [301 x i32], [301 x i32]* @a, i64 0, i64 %78
  %80 = load i32, i32* %79, align 4
  %81 = load i32, i32* %2, align 4
  %82 = sext i32 %81 to i64
  %83 = getelementptr inbounds [301 x i32], [301 x i32]* @a, i64 0, i64 %82
  %84 = load i32, i32* %83, align 4
  %85 = icmp eq i32 %80, %84
  br i1 %85, label %86, label %90

86:                                               ; preds = %76
  %87 = load i32, i32* %4, align 4
  %88 = sext i32 %87 to i64
  %89 = getelementptr inbounds [301 x i32], [301 x i32]* @a, i64 0, i64 %88
  store i32 -1, i32* %89, align 4
  br label %90

90:                                               ; preds = %86, %76
  br label %91

91:                                               ; preds = %90
  %92 = load i32, i32* %4, align 4
  %93 = add nsw i32 %92, 1
  store i32 %93, i32* %4, align 4
  br label %72

94:                                               ; preds = %72
  br label %95

95:                                               ; preds = %94
  %96 = load i32, i32* %2, align 4
  %97 = add nsw i32 %96, 1
  store i32 %97, i32* %2, align 4
  br label %65

98:                                               ; preds = %65
  %99 = load i32, i32* %3, align 4
  %100 = icmp ne i32 %99, 1
  br i1 %100, label %101, label %159

101:                                              ; preds = %98
  store i32 0, i32* %4, align 4
  br label %102

102:                                              ; preds = %147, %101
  %103 = load i32, i32* %4, align 4
  %104 = load i32, i32* %3, align 4
  %105 = icmp slt i32 %103, %104
  br i1 %105, label %106, label %150

106:                                              ; preds = %102
  store i32 1, i32* %2, align 4
  br label %107

107:                                              ; preds = %143, %106
  %108 = load i32, i32* %2, align 4
  %109 = load i32, i32* %3, align 4
  %110 = load i32, i32* %4, align 4
  %111 = sub nsw i32 %109, %110
  %112 = icmp slt i32 %108, %111
  br i1 %112, label %113, label %146

113:                                              ; preds = %107
  %114 = load i32, i32* %2, align 4
  %115 = sub nsw i32 %114, 1
  %116 = sext i32 %115 to i64
  %117 = getelementptr inbounds [301 x i32], [301 x i32]* @a, i64 0, i64 %116
  %118 = load i32, i32* %117, align 4
  %119 = load i32, i32* %2, align 4
  %120 = sext i32 %119 to i64
  %121 = getelementptr inbounds [301 x i32], [301 x i32]* @a, i64 0, i64 %120
  %122 = load i32, i32* %121, align 4
  %123 = icmp slt i32 %118, %122
  br i1 %123, label %124, label %142

124:                                              ; preds = %113
  %125 = load i32, i32* %2, align 4
  %126 = sub nsw i32 %125, 1
  %127 = sext i32 %126 to i64
  %128 = getelementptr inbounds [301 x i32], [301 x i32]* @a, i64 0, i64 %127
  %129 = load i32, i32* %128, align 4
  store i32 %129, i32* %5, align 4
  %130 = load i32, i32* %2, align 4
  %131 = sext i32 %130 to i64
  %132 = getelementptr inbounds [301 x i32], [301 x i32]* @a, i64 0, i64 %131
  %133 = load i32, i32* %132, align 4
  %134 = load i32, i32* %2, align 4
  %135 = sub nsw i32 %134, 1
  %136 = sext i32 %135 to i64
  %137 = getelementptr inbounds [301 x i32], [301 x i32]* @a, i64 0, i64 %136
  store i32 %133, i32* %137, align 4
  %138 = load i32, i32* %5, align 4
  %139 = load i32, i32* %2, align 4
  %140 = sext i32 %139 to i64
  %141 = getelementptr inbounds [301 x i32], [301 x i32]* @a, i64 0, i64 %140
  store i32 %138, i32* %141, align 4
  br label %142

142:                                              ; preds = %124, %113
  br label %143

143:                                              ; preds = %142
  %144 = load i32, i32* %2, align 4
  %145 = add nsw i32 %144, 1
  store i32 %145, i32* %2, align 4
  br label %107

146:                                              ; preds = %107
  br label %147

147:                                              ; preds = %146
  %148 = load i32, i32* %4, align 4
  %149 = add nsw i32 %148, 1
  store i32 %149, i32* %4, align 4
  br label %102

150:                                              ; preds = %102
  %151 = load i32, i32* getelementptr inbounds ([301 x i32], [301 x i32]* @a, i64 0, i64 1), align 4
  %152 = icmp ne i32 %151, -1
  br i1 %152, label %153, label %156

153:                                              ; preds = %150
  %154 = load i32, i32* getelementptr inbounds ([301 x i32], [301 x i32]* @a, i64 0, i64 1), align 4
  %155 = call i32 (i8*, ...) @printf(i8* getelementptr inbounds ([4 x i8], [4 x i8]* @.str.2, i64 0, i64 0), i32 %154)
  br label %158

156:                                              ; preds = %150
  %157 = call i32 (i8*, ...) @printf(i8* getelementptr inbounds ([4 x i8], [4 x i8]* @.str.3, i64 0, i64 0))
  br label %158

158:                                              ; preds = %156, %153
  br label %161

159:                                              ; preds = %98
  %160 = call i32 (i8*, ...) @printf(i8* getelementptr inbounds ([4 x i8], [4 x i8]* @.str.3, i64 0, i64 0))
  br label %161

161:                                              ; preds = %159, %158
  ret i32 0
}

declare dso_local i32 @__isoc99_scanf(i8*, ...) #1

; Function Attrs: nounwind readonly
declare dso_local i64 @strlen(i8*) #2

declare dso_local i32 @printf(i8*, ...) #1


!llvm.module.flags = !{!0}
!llvm.ident = !{!1}

!0 = !{i32 1, !"wchar_size", i32 4}
!1 = !{!"clang version 10.0.0-4ubuntu1 "}
